; Function Attrs: nounwind uwtable
define internal noundef i32 @ecd_item_sign25519(ptr readnone captures(none) %0, ptr readnone captures(none) %1, ptr readnone captures(none) %2, ptr noundef %3, ptr noundef %4, ptr readnone captures(none) %5) #0 {
  %7 = tail call ptr @OBJ_nid2obj(i32 noundef 1087) #8
  %8 = tail call i32 @X509_ALGOR_set0(ptr noundef %3, ptr noundef %7, i32 noundef -1, ptr noundef null) #8
  %.not.i = icmp eq ptr %4, null
  br i1 %.not.i, label %ecd_item_sign.exit, label %9

9:                                                ; preds = %6
  %10 = tail call ptr @OBJ_nid2obj(i32 noundef 1087) #8
  %11 = tail call i32 @X509_ALGOR_set0(ptr noundef nonnull %4, ptr noundef %10, i32 noundef -1, ptr noundef null) #8
  br label %ecd_item_sign.exit

ecd_item_sign.exit:                               ; preds = %6, %9
  ret i32 3
}